; Function Attrs: null_pointer_is_valid sspstrong uwtable
define internal void @protobuf_search_paths_load_all_set_cb(ptr noundef writeonly captures(none) initializes((8, 9)) %0, ptr noundef %1, i32 noundef %2, ptr readnone captures(none) %3, ptr readnone captures(none) %4) #0 {
  %6 = zext i32 %2 to i64
  %7 = tail call noalias ptr @g_strndup(ptr noundef %1, i64 noundef %6)
  %.not = icmp eq ptr %7, null
  br i1 %.not, label %11, label %8

8:                                                ; preds = %5
  %9 = tail call i32 @g_ascii_strcasecmp(ptr noundef nonnull %7, ptr noundef nonnull @.str.167)
  %10 = icmp eq i32 %9, 0
  br i1 %10, label %12, label %11

11:                                               ; preds = %8, %5
  br label %12

12:                                               ; preds = %8, %11
  %.sink = phi i8 [ 0, %11 ], [ 1, %8 ]
  %13 = getelementptr inbounds nuw i8, ptr %0, i64 8
  store i8 %.sink, ptr %13, align 8
  tail call void @g_free(ptr noundef %7)
  ret void
}